; Function Attrs: mustprogress uwtable
define noundef i32 @_ZNK9RBDataMap9getUInt28EPKcR10UErrorCode(ptr noundef nonnull align 8 dereferenceable(16) %this, ptr noundef %key, ptr noundef nonnull align 4 dereferenceable(4) %status) unnamed_addr #4 align 2 {
entry:
  %vtable = load ptr, ptr %this, align 8
  %vfn = getelementptr inbounds i8, ptr %vtable, i64 80
  %0 = load ptr, ptr %vfn, align 8
  %call = tail call noundef ptr %0(ptr noundef nonnull align 8 dereferenceable(16) %this, ptr noundef %key, ptr noundef nonnull align 4 dereferenceable(4) %status)
  %1 = load i32, ptr %status, align 4
  %cmp.i = icmp sgt i32 %1, 0
  br i1 %cmp.i, label %return, label %if.then

if.then:                                          ; preds = %entry
  %call3 = tail call noundef i32 @_ZNK6icu_7514ResourceBundle7getUIntER10UErrorCode(ptr noundef nonnull align 8 dereferenceable(24) %call, ptr noundef nonnull align 4 dereferenceable(4) %status)
  br label %return

return:                                           ; preds = %entry, %if.then
  %retval.0 = phi i32 [ %call3, %if.then ], [ 0, %entry ]
  ret i32 %retval.0
}